target datalayout = "e-m:e-p270:32:32-p271:32:32-p272:64:64-i64:64-i128:128-f80:128-n8:16:32:64-S128"
target triple = "x86_64-pc-linux-gnu"

%"class.cv::dpm::Feature" = type { i32, %"class.cv::dpm::PyramidParameter" }
%"class.cv::dpm::PyramidParameter" = type { i32, i32, i32, i32, double, i32, %"class.std::vector" }
%"class.std::vector" = type { %"struct.std::_Vector_base" }
%"struct.std::_Vector_base" = type { %"struct.std::_Vector_base<double, std::allocator<double>>::_Vector_impl" }
%"struct.std::_Vector_base<double, std::allocator<double>>::_Vector_impl" = type { %"struct.std::_Vector_base<double, std::allocator<double>>::_Vector_impl_data" }
%"struct.std::_Vector_base<double, std::allocator<double>>::_Vector_impl_data" = type { ptr, ptr, ptr }
%"class.cv::dpm::ParalComputePyramid" = type { %"class.cv::ParallelLoopBody", ptr, %"class.cv::Size_", ptr, ptr }
%"class.cv::ParallelLoopBody" = type { ptr }
%"class.cv::Size_" = type { double, double }
%"class.cv::Range" = type { i32, i32 }

@_ZN2cv3dpm19ParalComputePyramidC1ERKNS_3MatERSt6vectorIS2_SaIS2_EERNS0_16PyramidParameterE = hidden unnamed_addr alias void (ptr, ptr, ptr, ptr), ptr @_ZN2cv3dpm19ParalComputePyramidC2ERKNS_3MatERSt6vectorIS2_SaIS2_EERNS0_16PyramidParameterE

; Function Attrs: inlinehint mustprogress nounwind uwtable
define linkonce_odr hidden void @_ZN2cv5RangeC2Eii(ptr noundef nonnull align 4 dereferenceable(8) %0, i32 noundef %1, i32 noundef %2) unnamed_addr #5 comdat align 2 {
  %4 = alloca ptr, align 8
  %5 = alloca i32, align 4
  %6 = alloca i32, align 4
  store ptr %0, ptr %4, align 8, !tbaa !41
  store i32 %1, ptr %5, align 4, !tbaa !36
  store i32 %2, ptr %6, align 4, !tbaa !36
  %7 = load ptr, ptr %4, align 8
  %8 = getelementptr inbounds nuw %"class.cv::Range", ptr %7, i32 0, i32 0
  %9 = load i32, ptr %5, align 4, !tbaa !36
  store i32 %9, ptr %8, align 4, !tbaa !43
  %10 = getelementptr inbounds nuw %"class.cv::Range", ptr %7, i32 0, i32 1
  %11 = load i32, ptr %6, align 4, !tbaa !36
  store i32 %11, ptr %10, align 4, !tbaa !45
  ret void
}

; Function Attrs: mustprogress uwtable
define hidden void @_ZN2cv3dpm7Feature21computeFeaturePyramidERKNS_3MatERSt6vectorIS2_SaIS2_EE(ptr noundef nonnull align 8 dereferenceable(64) %0, ptr noundef nonnull align 8 dereferenceable(96) %1, ptr noundef nonnull align 8 dereferenceable(24) %2) #0 align 2 personality ptr @__gxx_personality_v0 {
  %4 = alloca ptr, align 8
  %5 = alloca ptr, align 8
  %6 = alloca ptr, align 8
  %7 = alloca %"class.cv::dpm::ParalComputePyramid", align 8
  %8 = alloca ptr, align 8
  %9 = alloca i32, align 4
  %10 = alloca %"class.cv::Range", align 4
  store ptr %0, ptr %4, align 8, !tbaa !3
  store ptr %1, ptr %5, align 8, !tbaa !24
  store ptr %2, ptr %6, align 8, !tbaa !26
  %11 = load ptr, ptr %4, align 8
  call void @llvm.lifetime.start.p0(i64 48, ptr %7) #17
  %12 = load ptr, ptr %5, align 8, !tbaa !24
  %13 = load ptr, ptr %6, align 8, !tbaa !26
  %14 = getelementptr inbounds nuw %"class.cv::dpm::Feature", ptr %11, i32 0, i32 1
  call void @_ZN2cv3dpm19ParalComputePyramidC1ERKNS_3MatERSt6vectorIS2_SaIS2_EERNS0_16PyramidParameterE(ptr noundef nonnull align 8 dereferenceable(48) %7, ptr noundef nonnull align 8 dereferenceable(96) %12, ptr noundef nonnull align 8 dereferenceable(24) %13, ptr noundef nonnull align 8 dereferenceable(56) %14)
  invoke void @_ZN2cv3dpm19ParalComputePyramid10initializeEv(ptr noundef nonnull align 8 dereferenceable(48) %7)
          to label %15 unwind label %21

15:                                               ; preds = %3
  call void @llvm.lifetime.start.p0(i64 8, ptr %10) #17
  %16 = getelementptr inbounds nuw %"class.cv::dpm::Feature", ptr %11, i32 0, i32 1
  %17 = getelementptr inbounds nuw %"class.cv::dpm::PyramidParameter", ptr %16, i32 0, i32 0
  %18 = load i32, ptr %17, align 8, !tbaa !28
  invoke void @_ZN2cv5RangeC2Eii(ptr noundef nonnull align 4 dereferenceable(8) %10, i32 noundef 0, i32 noundef %18)
          to label %19 unwind label %25

19:                                               ; preds = %15
  invoke void @_ZN2cv13parallel_for_ERKNS_5RangeERKNS_16ParallelLoopBodyEd(ptr noundef nonnull align 4 dereferenceable(8) %10, ptr noundef nonnull align 8 dereferenceable(8) %7, double noundef -1.000000e+00)
          to label %20 unwind label %25

20:                                               ; preds = %19
  call void @llvm.lifetime.end.p0(i64 8, ptr %10) #17
  call void @_ZN2cv16ParallelLoopBodyD2Ev(ptr noundef nonnull align 8 dereferenceable(48) %7) #17
  call void @llvm.lifetime.end.p0(i64 48, ptr %7) #17
  ret void

21:                                               ; preds = %3
  %22 = landingpad { ptr, i32 }
          cleanup
  %23 = extractvalue { ptr, i32 } %22, 0
  store ptr %23, ptr %8, align 8
  %24 = extractvalue { ptr, i32 } %22, 1
  store i32 %24, ptr %9, align 4
  br label %29

25:                                               ; preds = %19, %15
  %26 = landingpad { ptr, i32 }
          cleanup
  %27 = extractvalue { ptr, i32 } %26, 0
  store ptr %27, ptr %8, align 8
  %28 = extractvalue { ptr, i32 } %26, 1
  store i32 %28, ptr %9, align 4
  call void @llvm.lifetime.end.p0(i64 8, ptr %10) #17
  br label %29

29:                                               ; preds = %25, %21
  call void @_ZN2cv16ParallelLoopBodyD2Ev(ptr noundef nonnull align 8 dereferenceable(48) %7) #17
  call void @llvm.lifetime.end.p0(i64 48, ptr %7) #17
  br label %30

30:                                               ; preds = %29
  %31 = load ptr, ptr %8, align 8
  %32 = load i32, ptr %9, align 4
  %33 = insertvalue { ptr, i32 } poison, ptr %31, 0
  %34 = insertvalue { ptr, i32 } %33, i32 %32, 1
  resume { ptr, i32 } %34
}