; Function Attrs: mustprogress uwtable
define hidden void @_ZN2cv3dpm7Feature21computeFeaturePyramidERKNS_3MatERSt6vectorIS2_SaIS2_EE(ptr noundef nonnull align 8 dereferenceable(64) %0, ptr noundef nonnull align 8 dereferenceable(96) %1, ptr noundef nonnull align 8 dereferenceable(24) %2) local_unnamed_addr #1 align 2 personality ptr @__gxx_personality_v0 {
  %4 = alloca %"class.cv::dpm::ParalComputePyramid", align 8
  %5 = alloca %"class.cv::Range", align 4
  call void @llvm.lifetime.start.p0(i64 48, ptr nonnull %4) #19
  %6 = getelementptr inbounds nuw i8, ptr %0, i64 8
  store ptr getelementptr inbounds nuw inrange(-16, 24) (i8, ptr @_ZTVN2cv3dpm19ParalComputePyramidE, i64 16), ptr %4, align 8, !tbaa !25
  %7 = getelementptr inbounds nuw i8, ptr %4, i64 8
  store ptr %1, ptr %7, align 8, !tbaa !27
  %8 = getelementptr inbounds nuw i8, ptr %4, i64 16
  call void @llvm.memset.p0.i64(ptr noundef nonnull align 8 dereferenceable(16) %8, i8 0, i64 16, i1 false)
  %9 = getelementptr inbounds nuw i8, ptr %4, i64 32
  store ptr %2, ptr %9, align 8, !tbaa !29
  %10 = getelementptr inbounds nuw i8, ptr %4, i64 40
  store ptr %6, ptr %10, align 8, !tbaa !31
  invoke void @_ZN2cv3dpm19ParalComputePyramid10initializeEv(ptr noundef nonnull align 8 dereferenceable(48) %4)
          to label %11 unwind label %15

11:                                               ; preds = %3
  call void @llvm.lifetime.start.p0(i64 8, ptr nonnull %5) #19
  %12 = load i32, ptr %6, align 8, !tbaa !33
  store i32 0, ptr %5, align 4, !tbaa !35
  %13 = getelementptr inbounds nuw i8, ptr %5, i64 4
  store i32 %12, ptr %13, align 4, !tbaa !37
  invoke void @_ZN2cv13parallel_for_ERKNS_5RangeERKNS_16ParallelLoopBodyEd(ptr noundef nonnull align 4 dereferenceable(8) %5, ptr noundef nonnull align 8 dereferenceable(8) %4, double noundef -1.000000e+00)
          to label %14 unwind label %17

14:                                               ; preds = %11
  call void @llvm.lifetime.end.p0(i64 8, ptr nonnull %5) #19
  call void @_ZN2cv16ParallelLoopBodyD2Ev(ptr noundef nonnull align 8 dereferenceable(48) %4) #19
  call void @llvm.lifetime.end.p0(i64 48, ptr nonnull %4) #19
  ret void

15:                                               ; preds = %3
  %16 = landingpad { ptr, i32 }
          cleanup
  br label %19

17:                                               ; preds = %11
  %18 = landingpad { ptr, i32 }
          cleanup
  call void @llvm.lifetime.end.p0(i64 8, ptr nonnull %5) #19
  br label %19

19:                                               ; preds = %17, %15
  %.pn = phi { ptr, i32 } [ %18, %17 ], [ %16, %15 ]
  call void @_ZN2cv16ParallelLoopBodyD2Ev(ptr noundef nonnull align 8 dereferenceable(48) %4) #19
  call void @llvm.lifetime.end.p0(i64 48, ptr nonnull %4) #19
  resume { ptr, i32 } %.pn
}